; Function Attrs: mustprogress uwtable
define hidden void @_ZN4cvc58internal8decision12JustifyCache8setValueERKNS0_12NodeTemplateILb1EEENS0_4prop8SatValueE(ptr noundef nonnull align 8 dereferenceable(72) %0, ptr noundef nonnull align 8 dereferenceable(8) %1, i32 noundef %2) local_unnamed_addr #4 align 2 {
  %4 = alloca i32, align 4
  store i32 %2, ptr %4, align 4, !tbaa !53
  %5 = getelementptr inbounds nuw i8, ptr %0, i64 8
  %6 = load ptr, ptr %5, align 8, !tbaa !54
  %7 = load ptr, ptr %6, align 8, !tbaa !55
  %8 = getelementptr inbounds nuw i8, ptr %7, i64 16
  %9 = load ptr, ptr %8, align 8, !tbaa !64
  %10 = getelementptr inbounds i8, ptr %9, i64 -8
  %11 = load ptr, ptr %10, align 8, !tbaa !66
  %12 = icmp eq ptr %6, %11
  br i1 %12, label %_ZN4cvc57context15CDInsertHashMapINS_8internal12NodeTemplateILb1EEENS2_4prop8SatValueESt4hashIS4_EE6insertERKS4_RKS6_.exit, label %13

13:                                               ; preds = %3
  tail call void @_ZN4cvc57context10ContextObj6updateEv(ptr noundef nonnull align 8 dereferenceable(56) %0)
  br label %_ZN4cvc57context15CDInsertHashMapINS_8internal12NodeTemplateILb1EEENS2_4prop8SatValueESt4hashIS4_EE6insertERKS4_RKS6_.exit

_ZN4cvc57context15CDInsertHashMapINS_8internal12NodeTemplateILb1EEENS2_4prop8SatValueESt4hashIS4_EE6insertERKS4_RKS6_.exit: ; preds = %3, %13
  %14 = getelementptr inbounds nuw i8, ptr %0, i64 48
  %15 = load i64, ptr %14, align 8, !tbaa !25
  %16 = add i64 %15, 1
  store i64 %16, ptr %14, align 8, !tbaa !25
  %17 = getelementptr inbounds nuw i8, ptr %0, i64 40
  %18 = load ptr, ptr %17, align 8, !tbaa !18
  call void @_ZN4cvc57context13InsertHashMapINS_8internal12NodeTemplateILb1EEENS2_4prop8SatValueESt4hashIS4_EE9push_backERKS4_RKS6_(ptr noundef nonnull align 8 dereferenceable(136) %18, ptr noundef nonnull align 8 dereferenceable(8) %1, ptr noundef nonnull align 4 dereferenceable(4) %4)
  ret void
}